target datalayout = "e-m:e-p270:32:32-p271:32:32-p272:64:64-i64:64-i128:128-f80:128-n8:16:32:64-S128"
target triple = "x86_64-pc-linux-gnu"

%struct.AVFilterLink = type { ptr, ptr, ptr, ptr, i32, i32, i32, i32, %struct.AVRational, i32, i32, i32, %struct.AVChannelLayout, %struct.AVRational, ptr, i32, %struct.AVFilterFormatsConfig, %struct.AVFilterFormatsConfig }
%struct.AVChannelLayout = type { i32, i32, %union.anon.0, ptr }
%union.anon.0 = type { i64 }
%struct.AVFilterFormatsConfig = type { ptr, ptr, ptr, ptr, ptr }
%struct.AVRational = type { i32, i32 }
%struct.AVFrame = type { [8 x ptr], [8 x i32], ptr, i32, i32, i32, i32, i32, %struct.AVRational, i64, i64, %struct.AVRational, i32, ptr, i32, i32, [8 x ptr], ptr, i32, ptr, i32, i32, i32, i32, i32, i32, i32, i64, ptr, i32, ptr, ptr, i64, i64, i64, i64, ptr, %struct.AVChannelLayout, i64 }

@.str.38 = private unnamed_addr constant [27 x i8] c"Copying data in avfilter.\0A\00", align 1

; Function Attrs: nounwind uwtable
define i32 @ff_inlink_make_frame_writable(ptr noundef %0, ptr noundef %1) #0 {
  %3 = alloca i32, align 4
  %4 = alloca ptr, align 8
  %5 = alloca ptr, align 8
  %6 = alloca ptr, align 8
  %7 = alloca ptr, align 8
  %8 = alloca i32, align 4
  %9 = alloca i32, align 4
  store ptr %0, ptr %4, align 8, !tbaa !26
  store ptr %1, ptr %5, align 8, !tbaa !205
  call void @llvm.lifetime.start.p0(i64 8, ptr %6) #11
  %10 = load ptr, ptr %5, align 8, !tbaa !205
  %11 = load ptr, ptr %10, align 8, !tbaa !183
  store ptr %11, ptr %6, align 8, !tbaa !183
  call void @llvm.lifetime.start.p0(i64 8, ptr %7) #11
  call void @llvm.lifetime.start.p0(i64 4, ptr %8) #11
  %12 = load ptr, ptr %6, align 8, !tbaa !183
  %13 = call i32 @av_frame_is_writable(ptr noundef %12)
  %14 = icmp ne i32 %13, 0
  br i1 %14, label %15, label %16

15:                                               ; preds = %2
  store i32 0, ptr %3, align 4
  store i32 1, ptr %9, align 4
  br label %62

16:                                               ; preds = %2
  %17 = load ptr, ptr %4, align 8, !tbaa !26
  %18 = getelementptr inbounds nuw %struct.AVFilterLink, ptr %17, i32 0, i32 2
  %19 = load ptr, ptr %18, align 8, !tbaa !57
  call void (ptr, i32, ptr, ...) @av_log(ptr noundef %19, i32 noundef 48, ptr noundef @.str.38)
  %20 = load ptr, ptr %4, align 8, !tbaa !26
  %21 = getelementptr inbounds nuw %struct.AVFilterLink, ptr %20, i32 0, i32 4
  %22 = load i32, ptr %21, align 8, !tbaa !60
  switch i32 %22, label %38 [
    i32 0, label %23
    i32 1, label %32
  ]

23:                                               ; preds = %16
  %24 = load ptr, ptr %4, align 8, !tbaa !26
  %25 = load ptr, ptr %4, align 8, !tbaa !26
  %26 = getelementptr inbounds nuw %struct.AVFilterLink, ptr %25, i32 0, i32 6
  %27 = load i32, ptr %26, align 8, !tbaa !107
  %28 = load ptr, ptr %4, align 8, !tbaa !26
  %29 = getelementptr inbounds nuw %struct.AVFilterLink, ptr %28, i32 0, i32 7
  %30 = load i32, ptr %29, align 4, !tbaa !108
  %31 = call ptr @ff_get_video_buffer(ptr noundef %24, i32 noundef %27, i32 noundef %30)
  store ptr %31, ptr %7, align 8, !tbaa !183
  br label %39

32:                                               ; preds = %16
  %33 = load ptr, ptr %4, align 8, !tbaa !26
  %34 = load ptr, ptr %6, align 8, !tbaa !183
  %35 = getelementptr inbounds nuw %struct.AVFrame, ptr %34, i32 0, i32 5
  %36 = load i32, ptr %35, align 8, !tbaa !189
  %37 = call ptr @ff_get_audio_buffer(ptr noundef %33, i32 noundef %36)
  store ptr %37, ptr %7, align 8, !tbaa !183
  br label %39

38:                                               ; preds = %16
  store i32 -22, ptr %3, align 4
  store i32 1, ptr %9, align 4
  br label %62

39:                                               ; preds = %32, %23
  %40 = load ptr, ptr %7, align 8, !tbaa !183
  %41 = icmp ne ptr %40, null
  br i1 %41, label %43, label %42

42:                                               ; preds = %39
  store i32 -12, ptr %3, align 4
  store i32 1, ptr %9, align 4
  br label %62

43:                                               ; preds = %39
  %44 = load ptr, ptr %7, align 8, !tbaa !183
  %45 = load ptr, ptr %6, align 8, !tbaa !183
  %46 = call i32 @av_frame_copy_props(ptr noundef %44, ptr noundef %45)
  store i32 %46, ptr %8, align 4, !tbaa !19
  %47 = load i32, ptr %8, align 4, !tbaa !19
  %48 = icmp slt i32 %47, 0
  br i1 %48, label %49, label %51

49:                                               ; preds = %43
  call void @av_frame_free(ptr noundef %7)
  %50 = load i32, ptr %8, align 4, !tbaa !19
  store i32 %50, ptr %3, align 4
  store i32 1, ptr %9, align 4
  br label %62

51:                                               ; preds = %43
  %52 = load ptr, ptr %7, align 8, !tbaa !183
  %53 = load ptr, ptr %6, align 8, !tbaa !183
  %54 = call i32 @av_frame_copy(ptr noundef %52, ptr noundef %53)
  store i32 %54, ptr %8, align 4, !tbaa !19
  %55 = load i32, ptr %8, align 4, !tbaa !19
  %56 = icmp slt i32 %55, 0
  br i1 %56, label %57, label %59

57:                                               ; preds = %51
  call void @av_frame_free(ptr noundef %7)
  %58 = load i32, ptr %8, align 4, !tbaa !19
  store i32 %58, ptr %3, align 4
  store i32 1, ptr %9, align 4
  br label %62

59:                                               ; preds = %51
  call void @av_frame_free(ptr noundef %6)
  %60 = load ptr, ptr %7, align 8, !tbaa !183
  %61 = load ptr, ptr %5, align 8, !tbaa !205
  store ptr %60, ptr %61, align 8, !tbaa !183
  store i32 0, ptr %3, align 4
  store i32 1, ptr %9, align 4
  br label %62

62:                                               ; preds = %59, %57, %49, %42, %38, %15
  call void @llvm.lifetime.end.p0(i64 4, ptr %8) #11
  call void @llvm.lifetime.end.p0(i64 8, ptr %7) #11
  call void @llvm.lifetime.end.p0(i64 8, ptr %6) #11
  %63 = load i32, ptr %3, align 4
  ret i32 %63
}