; Function Attrs: nounwind uwtable
define range(i32 -2147483648, 1) i32 @ff_inlink_make_frame_writable(ptr noundef %0, ptr noundef captures(none) %1) local_unnamed_addr #0 {
  %3 = alloca ptr, align 8
  %4 = alloca ptr, align 8
  call void @llvm.lifetime.start.p0(i64 8, ptr nonnull %3) #15
  %5 = load ptr, ptr %1, align 8, !tbaa !151
  store ptr %5, ptr %3, align 8, !tbaa !151
  call void @llvm.lifetime.start.p0(i64 8, ptr nonnull %4) #15
  %6 = tail call i32 @av_frame_is_writable(ptr noundef %5) #15
  %.not = icmp eq i32 %6, 0
  br i1 %.not, label %7, label %34

7:                                                ; preds = %2
  %8 = getelementptr inbounds nuw i8, ptr %0, i64 16
  %9 = load ptr, ptr %8, align 8, !tbaa !47
  tail call void (ptr, i32, ptr, ...) @av_log(ptr noundef %9, i32 noundef 48, ptr noundef nonnull @.str.38) #15
  %10 = getelementptr inbounds nuw i8, ptr %0, i64 32
  %11 = load i32, ptr %10, align 8, !tbaa !50
  switch i32 %11, label %34 [
    i32 0, label %12
    i32 1, label %18
  ]

12:                                               ; preds = %7
  %13 = getelementptr inbounds nuw i8, ptr %0, i64 40
  %14 = load i32, ptr %13, align 8, !tbaa !89
  %15 = getelementptr inbounds nuw i8, ptr %0, i64 44
  %16 = load i32, ptr %15, align 4, !tbaa !90
  %17 = tail call ptr @ff_get_video_buffer(ptr noundef nonnull %0, i32 noundef %14, i32 noundef %16) #15
  br label %22

18:                                               ; preds = %7
  %19 = getelementptr inbounds nuw i8, ptr %5, i64 112
  %20 = load i32, ptr %19, align 8, !tbaa !152
  %21 = tail call ptr @ff_get_audio_buffer(ptr noundef nonnull %0, i32 noundef %20) #15
  br label %22

22:                                               ; preds = %18, %12
  %23 = phi ptr [ %21, %18 ], [ %17, %12 ]
  store ptr %23, ptr %4, align 8, !tbaa !151
  %.not15 = icmp eq ptr %23, null
  br i1 %.not15, label %34, label %24

24:                                               ; preds = %22
  %25 = tail call i32 @av_frame_copy_props(ptr noundef nonnull %23, ptr noundef %5) #15
  %26 = icmp slt i32 %25, 0
  br i1 %26, label %27, label %28

27:                                               ; preds = %24
  call void @av_frame_free(ptr noundef nonnull %4) #15
  br label %34

28:                                               ; preds = %24
  %29 = tail call i32 @av_frame_copy(ptr noundef nonnull %23, ptr noundef %5) #15
  %30 = icmp slt i32 %29, 0
  br i1 %30, label %31, label %32

31:                                               ; preds = %28
  call void @av_frame_free(ptr noundef nonnull %4) #15
  br label %34

32:                                               ; preds = %28
  call void @av_frame_free(ptr noundef nonnull %3) #15
  %33 = load ptr, ptr %4, align 8, !tbaa !151
  store ptr %33, ptr %1, align 8, !tbaa !151
  br label %34

34:                                               ; preds = %22, %7, %2, %32, %31, %27
  %.0 = phi i32 [ %25, %27 ], [ %29, %31 ], [ 0, %32 ], [ 0, %2 ], [ -22, %7 ], [ -12, %22 ]
  call void @llvm.lifetime.end.p0(i64 8, ptr nonnull %4) #15
  call void @llvm.lifetime.end.p0(i64 8, ptr nonnull %3) #15
  ret i32 %.0
}